target datalayout = "e-m:e-p270:32:32-p271:32:32-p272:64:64-i64:64-i128:128-f80:128-n8:16:32:64-S128"
target triple = "x86_64-pc-linux-gnu"

%struct.ImVector.20 = type { i32, i32, ptr }
%struct.ImRect = type { %struct.ImVec2, %struct.ImVec2 }
%struct.ImVec2 = type { float, float }
%struct.ImDrawListSplitter = type { i32, i32, %struct.ImVector.20 }
%struct.ImGuiOldColumns = type { i32, i32, i8, i8, i32, i32, float, float, float, float, float, float, %struct.ImRect, %struct.ImRect, %struct.ImRect, %struct.ImVector.45, %struct.ImDrawListSplitter }
%struct.ImVector.45 = type { i32, i32, ptr }

; Function Attrs: mustprogress nounwind uwtable
define noundef float @_ZN5ImGui23GetColumnOffsetFromNormEPK15ImGuiOldColumnsf(ptr noundef %0, float noundef %1) #7 {
  %3 = alloca ptr, align 8
  %4 = alloca float, align 4
  store ptr %0, ptr %3, align 8, !tbaa !690
  store float %1, ptr %4, align 4, !tbaa !16
  %5 = load float, ptr %4, align 4, !tbaa !16
  %6 = load ptr, ptr %3, align 8, !tbaa !690
  %7 = getelementptr inbounds nuw %struct.ImGuiOldColumns, ptr %6, i32 0, i32 7
  %8 = load float, ptr %7, align 8, !tbaa !691
  %9 = load ptr, ptr %3, align 8, !tbaa !690
  %10 = getelementptr inbounds nuw %struct.ImGuiOldColumns, ptr %9, i32 0, i32 6
  %11 = load float, ptr %10, align 4, !tbaa !692
  %12 = fsub float %8, %11
  %13 = fmul float %5, %12
  ret float %13
}