; Function Attrs: mustprogress nofree norecurse nosync nounwind willreturn memory(argmem: read) uwtable
define noundef float @_ZN5ImGui23GetColumnOffsetFromNormEPK15ImGuiOldColumnsf(ptr noundef readonly captures(none) %0, float noundef %1) local_unnamed_addr #11 {
  %3 = getelementptr inbounds nuw i8, ptr %0, i64 24
  %4 = load float, ptr %3, align 8, !tbaa !621
  %5 = getelementptr inbounds nuw i8, ptr %0, i64 20
  %6 = load float, ptr %5, align 4, !tbaa !622
  %7 = fsub float %4, %6
  %8 = fmul float %1, %7
  ret float %8
}